target datalayout = "e-m:e-p270:32:32-p271:32:32-p272:64:64-i64:64-i128:128-f80:128-n8:16:32:64-S128"
target triple = "x86_64-pc-linux-gnu"

%struct.PrintfTarget = type { ptr, ptr, ptr, ptr, i32, i8 }

; Function Attrs: nounwind uwtable
define internal void @flushbuffer(ptr noundef %0) #0 {
  %2 = alloca ptr, align 8
  %3 = alloca i64, align 8
  %4 = alloca i64, align 8
  store ptr %0, ptr %2, align 8
  call void @llvm.lifetime.start.p0(i64 8, ptr %3) #10
  %5 = load ptr, ptr %2, align 8
  %6 = getelementptr inbounds nuw %struct.PrintfTarget, ptr %5, i32 0, i32 0
  %7 = load ptr, ptr %6, align 8
  %8 = load ptr, ptr %2, align 8
  %9 = getelementptr inbounds nuw %struct.PrintfTarget, ptr %8, i32 0, i32 1
  %10 = load ptr, ptr %9, align 8
  %11 = ptrtoint ptr %7 to i64
  %12 = ptrtoint ptr %10 to i64
  %13 = sub i64 %11, %12
  store i64 %13, ptr %3, align 8
  %14 = load ptr, ptr %2, align 8
  %15 = getelementptr inbounds nuw %struct.PrintfTarget, ptr %14, i32 0, i32 5
  %16 = load i8, ptr %15, align 4, !range !3, !noundef !4
  %17 = trunc i8 %16 to i1
  br i1 %17, label %44, label %18

18:                                               ; preds = %1
  %19 = load i64, ptr %3, align 8
  %20 = icmp ugt i64 %19, 0
  br i1 %20, label %21, label %44

21:                                               ; preds = %18
  call void @llvm.lifetime.start.p0(i64 8, ptr %4) #10
  %22 = load ptr, ptr %2, align 8
  %23 = getelementptr inbounds nuw %struct.PrintfTarget, ptr %22, i32 0, i32 1
  %24 = load ptr, ptr %23, align 8
  %25 = load i64, ptr %3, align 8
  %26 = load ptr, ptr %2, align 8
  %27 = getelementptr inbounds nuw %struct.PrintfTarget, ptr %26, i32 0, i32 3
  %28 = load ptr, ptr %27, align 8
  %29 = call i64 @fwrite(ptr noundef %24, i64 noundef 1, i64 noundef %25, ptr noundef %28)
  store i64 %29, ptr %4, align 8
  %30 = load i64, ptr %4, align 8
  %31 = load ptr, ptr %2, align 8
  %32 = getelementptr inbounds nuw %struct.PrintfTarget, ptr %31, i32 0, i32 4
  %33 = load i32, ptr %32, align 8
  %34 = sext i32 %33 to i64
  %35 = add i64 %34, %30
  %36 = trunc i64 %35 to i32
  store i32 %36, ptr %32, align 8
  %37 = load i64, ptr %4, align 8
  %38 = load i64, ptr %3, align 8
  %39 = icmp ne i64 %37, %38
  br i1 %39, label %40, label %43

40:                                               ; preds = %21
  %41 = load ptr, ptr %2, align 8
  %42 = getelementptr inbounds nuw %struct.PrintfTarget, ptr %41, i32 0, i32 5
  store i8 1, ptr %42, align 4
  br label %43

43:                                               ; preds = %40, %21
  call void @llvm.lifetime.end.p0(i64 8, ptr %4) #10
  br label %44

44:                                               ; preds = %43, %18, %1
  %45 = load ptr, ptr %2, align 8
  %46 = getelementptr inbounds nuw %struct.PrintfTarget, ptr %45, i32 0, i32 1
  %47 = load ptr, ptr %46, align 8
  %48 = load ptr, ptr %2, align 8
  %49 = getelementptr inbounds nuw %struct.PrintfTarget, ptr %48, i32 0, i32 0
  store ptr %47, ptr %49, align 8
  call void @llvm.lifetime.end.p0(i64 8, ptr %3) #10
  ret void
}

; Function Attrs: nounwind uwtable
define internal void @dopr_outch(i32 noundef %0, ptr noundef %1) #0 {
  %3 = alloca i32, align 4
  %4 = alloca ptr, align 8
  store i32 %0, ptr %3, align 4
  store ptr %1, ptr %4, align 8
  %5 = load ptr, ptr %4, align 8
  %6 = getelementptr inbounds nuw %struct.PrintfTarget, ptr %5, i32 0, i32 2
  %7 = load ptr, ptr %6, align 8
  %8 = icmp ne ptr %7, null
  br i1 %8, label %9, label %29

9:                                                ; preds = %2
  %10 = load ptr, ptr %4, align 8
  %11 = getelementptr inbounds nuw %struct.PrintfTarget, ptr %10, i32 0, i32 0
  %12 = load ptr, ptr %11, align 8
  %13 = load ptr, ptr %4, align 8
  %14 = getelementptr inbounds nuw %struct.PrintfTarget, ptr %13, i32 0, i32 2
  %15 = load ptr, ptr %14, align 8
  %16 = icmp uge ptr %12, %15
  br i1 %16, label %17, label %29

17:                                               ; preds = %9
  %18 = load ptr, ptr %4, align 8
  %19 = getelementptr inbounds nuw %struct.PrintfTarget, ptr %18, i32 0, i32 3
  %20 = load ptr, ptr %19, align 8
  %21 = icmp eq ptr %20, null
  br i1 %21, label %22, label %27

22:                                               ; preds = %17
  %23 = load ptr, ptr %4, align 8
  %24 = getelementptr inbounds nuw %struct.PrintfTarget, ptr %23, i32 0, i32 4
  %25 = load i32, ptr %24, align 8
  %26 = add i32 %25, 1
  store i32 %26, ptr %24, align 8
  br label %36

27:                                               ; preds = %17
  %28 = load ptr, ptr %4, align 8
  call void @flushbuffer(ptr noundef %28)
  br label %29

29:                                               ; preds = %27, %9, %2
  %30 = load i32, ptr %3, align 4
  %31 = trunc i32 %30 to i8
  %32 = load ptr, ptr %4, align 8
  %33 = getelementptr inbounds nuw %struct.PrintfTarget, ptr %32, i32 0, i32 0
  %34 = load ptr, ptr %33, align 8
  %35 = getelementptr inbounds nuw i8, ptr %34, i32 1
  store ptr %35, ptr %33, align 8
  store i8 %31, ptr %34, align 1
  br label %36

36:                                               ; preds = %29, %22
  ret void
}

; Function Attrs: nounwind uwtable
define internal void @dostr(ptr noundef %0, i32 noundef %1, ptr noundef %2) #0 {
  %4 = alloca ptr, align 8
  %5 = alloca i32, align 4
  %6 = alloca ptr, align 8
  %7 = alloca i32, align 4
  %8 = alloca i32, align 4
  store ptr %0, ptr %4, align 8
  store i32 %1, ptr %5, align 4
  store ptr %2, ptr %6, align 8
  %9 = load i32, ptr %5, align 4
  %10 = icmp eq i32 %9, 1
  br i1 %10, label %11, label %16

11:                                               ; preds = %3
  %12 = load ptr, ptr %4, align 8
  %13 = load i8, ptr %12, align 1
  %14 = sext i8 %13 to i32
  %15 = load ptr, ptr %6, align 8
  call void @dopr_outch(i32 noundef %14, ptr noundef %15)
  br label %86

16:                                               ; preds = %3
  br label %17

17:                                               ; preds = %85, %83, %16
  %18 = load i32, ptr %5, align 4
  %19 = icmp sgt i32 %18, 0
  br i1 %19, label %20, label %86

20:                                               ; preds = %17
  call void @llvm.lifetime.start.p0(i64 4, ptr %7) #10
  %21 = load ptr, ptr %6, align 8
  %22 = getelementptr inbounds nuw %struct.PrintfTarget, ptr %21, i32 0, i32 2
  %23 = load ptr, ptr %22, align 8
  %24 = icmp ne ptr %23, null
  br i1 %24, label %25, label %36

25:                                               ; preds = %20
  %26 = load ptr, ptr %6, align 8
  %27 = getelementptr inbounds nuw %struct.PrintfTarget, ptr %26, i32 0, i32 2
  %28 = load ptr, ptr %27, align 8
  %29 = load ptr, ptr %6, align 8
  %30 = getelementptr inbounds nuw %struct.PrintfTarget, ptr %29, i32 0, i32 0
  %31 = load ptr, ptr %30, align 8
  %32 = ptrtoint ptr %28 to i64
  %33 = ptrtoint ptr %31 to i64
  %34 = sub i64 %32, %33
  %35 = trunc i64 %34 to i32
  store i32 %35, ptr %7, align 4
  br label %38

36:                                               ; preds = %20
  %37 = load i32, ptr %5, align 4
  store i32 %37, ptr %7, align 4
  br label %38

38:                                               ; preds = %36, %25
  %39 = load i32, ptr %7, align 4
  %40 = icmp sle i32 %39, 0
  br i1 %40, label %41, label %54

41:                                               ; preds = %38
  %42 = load ptr, ptr %6, align 8
  %43 = getelementptr inbounds nuw %struct.PrintfTarget, ptr %42, i32 0, i32 3
  %44 = load ptr, ptr %43, align 8
  %45 = icmp eq ptr %44, null
  br i1 %45, label %46, label %52

46:                                               ; preds = %41
  %47 = load i32, ptr %5, align 4
  %48 = load ptr, ptr %6, align 8
  %49 = getelementptr inbounds nuw %struct.PrintfTarget, ptr %48, i32 0, i32 4
  %50 = load i32, ptr %49, align 8
  %51 = add i32 %50, %47
  store i32 %51, ptr %49, align 8
  store i32 1, ptr %8, align 4
  br label %83

52:                                               ; preds = %41
  %53 = load ptr, ptr %6, align 8
  call void @flushbuffer(ptr noundef %53)
  store i32 2, ptr %8, align 4
  br label %83, !llvm.loop !7

54:                                               ; preds = %38
  %55 = load i32, ptr %7, align 4
  %56 = load i32, ptr %5, align 4
  %57 = icmp slt i32 %55, %56
  br i1 %57, label %58, label %60

58:                                               ; preds = %54
  %59 = load i32, ptr %7, align 4
  br label %62

60:                                               ; preds = %54
  %61 = load i32, ptr %5, align 4
  br label %62

62:                                               ; preds = %60, %58
  %63 = phi i32 [ %59, %58 ], [ %61, %60 ]
  store i32 %63, ptr %7, align 4
  %64 = load ptr, ptr %6, align 8
  %65 = getelementptr inbounds nuw %struct.PrintfTarget, ptr %64, i32 0, i32 0
  %66 = load ptr, ptr %65, align 8
  %67 = load ptr, ptr %4, align 8
  %68 = load i32, ptr %7, align 4
  %69 = sext i32 %68 to i64
  call void @llvm.memmove.p0.p0.i64(ptr align 1 %66, ptr align 1 %67, i64 %69, i1 false)
  %70 = load i32, ptr %7, align 4
  %71 = load ptr, ptr %6, align 8
  %72 = getelementptr inbounds nuw %struct.PrintfTarget, ptr %71, i32 0, i32 0
  %73 = load ptr, ptr %72, align 8
  %74 = sext i32 %70 to i64
  %75 = getelementptr inbounds i8, ptr %73, i64 %74
  store ptr %75, ptr %72, align 8
  %76 = load i32, ptr %7, align 4
  %77 = load ptr, ptr %4, align 8
  %78 = sext i32 %76 to i64
  %79 = getelementptr inbounds i8, ptr %77, i64 %78
  store ptr %79, ptr %4, align 8
  %80 = load i32, ptr %7, align 4
  %81 = load i32, ptr %5, align 4
  %82 = sub i32 %81, %80
  store i32 %82, ptr %5, align 4
  store i32 0, ptr %8, align 4
  br label %83

83:                                               ; preds = %62, %52, %46
  call void @llvm.lifetime.end.p0(i64 4, ptr %7) #10
  %84 = load i32, ptr %8, align 4
  switch i32 %84, label %87 [
    i32 0, label %85
    i32 1, label %86
    i32 2, label %17
  ]

85:                                               ; preds = %83
  br label %17, !llvm.loop !7

86:                                               ; preds = %11, %83, %17
  ret void

87:                                               ; preds = %83
  unreachable
}