; Function Attrs: nofree nounwind uwtable
define internal fastcc void @dostr(ptr noundef readonly captures(none) %0, i32 noundef %1, ptr noundef nonnull captures(none) %2) unnamed_addr #4 {
  %4 = icmp eq i32 %1, 1
  br i1 %4, label %11, label %.preheader

.preheader:                                       ; preds = %3
  %5 = icmp sgt i32 %1, 0
  br i1 %5, label %.lr.ph, label %dopr_outch.exit

.lr.ph:                                           ; preds = %.preheader
  %6 = getelementptr inbounds nuw i8, ptr %2, i64 16
  %7 = getelementptr inbounds nuw i8, ptr %2, i64 24
  %8 = getelementptr inbounds nuw i8, ptr %2, i64 8
  %9 = getelementptr inbounds nuw i8, ptr %2, i64 36
  %10 = getelementptr inbounds nuw i8, ptr %2, i64 32
  %.pre.pre = load ptr, ptr %2, align 8
  br label %44

11:                                               ; preds = %3
  %12 = load i8, ptr %0, align 1
  %13 = getelementptr inbounds nuw i8, ptr %2, i64 16
  %14 = load ptr, ptr %13, align 8
  %.not.i = icmp eq ptr %14, null
  %.pre.i = load ptr, ptr %2, align 8
  %.not7.i = icmp ult ptr %.pre.i, %14
  %or.cond.i = select i1 %.not.i, i1 true, i1 %.not7.i
  br i1 %or.cond.i, label %41, label %15

15:                                               ; preds = %11
  %16 = getelementptr inbounds nuw i8, ptr %2, i64 24
  %17 = load ptr, ptr %16, align 8
  %18 = icmp eq ptr %17, null
  br i1 %18, label %19, label %23

19:                                               ; preds = %15
  %20 = getelementptr inbounds nuw i8, ptr %2, i64 32
  %21 = load i32, ptr %20, align 8
  %22 = add i32 %21, 1
  store i32 %22, ptr %20, align 8
  br label %dopr_outch.exit

23:                                               ; preds = %15
  %24 = getelementptr inbounds nuw i8, ptr %2, i64 8
  %25 = load ptr, ptr %24, align 8
  %26 = getelementptr inbounds nuw i8, ptr %2, i64 36
  %27 = load i8, ptr %26, align 4, !range !3, !noundef !4
  %28 = trunc nuw i8 %27 to i1
  %29 = icmp eq ptr %.pre.i, %25
  %or.cond.not.i.i = select i1 %28, i1 true, i1 %29
  br i1 %or.cond.not.i.i, label %flushbuffer.exit.i, label %30

30:                                               ; preds = %23
  %31 = ptrtoint ptr %25 to i64
  %32 = ptrtoint ptr %.pre.i to i64
  %33 = sub i64 %32, %31
  %34 = tail call i64 @fwrite(ptr noundef %25, i64 noundef 1, i64 noundef %33, ptr noundef nonnull %17)
  %35 = getelementptr inbounds nuw i8, ptr %2, i64 32
  %36 = load i32, ptr %35, align 8
  %37 = trunc i64 %34 to i32
  %38 = add i32 %36, %37
  store i32 %38, ptr %35, align 8
  %.not.i.i = icmp eq i64 %34, %33
  br i1 %.not.i.i, label %flushbuffer.exit.i, label %39

39:                                               ; preds = %30
  store i8 1, ptr %26, align 4
  br label %flushbuffer.exit.i

flushbuffer.exit.i:                               ; preds = %39, %30, %23
  %40 = load ptr, ptr %24, align 8
  br label %41

41:                                               ; preds = %flushbuffer.exit.i, %11
  %42 = phi ptr [ %40, %flushbuffer.exit.i ], [ %.pre.i, %11 ]
  %43 = getelementptr inbounds nuw i8, ptr %42, i64 1
  store ptr %43, ptr %2, align 8
  store i8 %12, ptr %42, align 1
  br label %dopr_outch.exit

44:                                               ; preds = %.lr.ph, %77
  %.pre = phi ptr [ %.pre.pre, %.lr.ph ], [ %.pre46, %77 ]
  %.02743 = phi ptr [ %0, %.lr.ph ], [ %.1, %77 ]
  %.02842 = phi i32 [ %1, %.lr.ph ], [ %.129, %77 ]
  %45 = load ptr, ptr %6, align 8
  %.not = icmp eq ptr %45, null
  br i1 %.not, label %.thread, label %46

46:                                               ; preds = %44
  %47 = ptrtoint ptr %45 to i64
  %48 = ptrtoint ptr %.pre to i64
  %49 = sub i64 %47, %48
  %50 = trunc i64 %49 to i32
  %51 = icmp slt i32 %50, 1
  br i1 %51, label %52, label %.thread

52:                                               ; preds = %46
  %53 = load ptr, ptr %7, align 8
  %54 = icmp eq ptr %53, null
  br i1 %54, label %.thread35, label %57

.thread35:                                        ; preds = %52
  %55 = load i32, ptr %10, align 8
  %56 = add i32 %55, %.02842
  store i32 %56, ptr %10, align 8
  br label %dopr_outch.exit

57:                                               ; preds = %52
  %58 = load ptr, ptr %8, align 8
  %59 = load i8, ptr %9, align 4, !range !3, !noundef !4
  %60 = trunc nuw i8 %59 to i1
  %61 = icmp eq ptr %.pre, %58
  %or.cond.not.i = select i1 %60, i1 true, i1 %61
  br i1 %or.cond.not.i, label %flushbuffer.exit, label %62

62:                                               ; preds = %57
  %63 = ptrtoint ptr %58 to i64
  %64 = sub i64 %48, %63
  %65 = tail call i64 @fwrite(ptr noundef %58, i64 noundef 1, i64 noundef %64, ptr noundef nonnull %53)
  %66 = load i32, ptr %10, align 8
  %67 = trunc i64 %65 to i32
  %68 = add i32 %66, %67
  store i32 %68, ptr %10, align 8
  %.not.i32 = icmp eq i64 %65, %64
  br i1 %.not.i32, label %flushbuffer.exit, label %69

69:                                               ; preds = %62
  store i8 1, ptr %9, align 4
  br label %flushbuffer.exit

flushbuffer.exit:                                 ; preds = %57, %62, %69
  %70 = load ptr, ptr %8, align 8
  store ptr %70, ptr %2, align 8
  br label %77, !llvm.loop !9

.thread:                                          ; preds = %44, %46
  %.02634 = phi i32 [ %50, %46 ], [ %.02842, %44 ]
  %71 = tail call i32 @llvm.umin.i32(i32 %.02634, i32 %.02842)
  %72 = zext nneg i32 %71 to i64
  tail call void @llvm.memmove.p0.p0.i64(ptr align 1 %.pre, ptr align 1 %.02743, i64 %72, i1 false)
  %73 = load ptr, ptr %2, align 8
  %74 = getelementptr inbounds nuw i8, ptr %73, i64 %72
  store ptr %74, ptr %2, align 8
  %75 = getelementptr inbounds nuw i8, ptr %.02743, i64 %72
  %76 = sub nsw i32 %.02842, %71
  br label %77

77:                                               ; preds = %.thread, %flushbuffer.exit
  %.pre46 = phi ptr [ %70, %flushbuffer.exit ], [ %74, %.thread ]
  %.129 = phi i32 [ %.02842, %flushbuffer.exit ], [ %76, %.thread ]
  %.1 = phi ptr [ %.02743, %flushbuffer.exit ], [ %75, %.thread ]
  %78 = icmp sgt i32 %.129, 0
  br i1 %78, label %44, label %dopr_outch.exit

dopr_outch.exit:                                  ; preds = %77, %.preheader, %.thread35, %41, %19
  ret void
}